(lp0
I0
aS'W'
p1
aI0
aS'e'
p2
aI0
aS' '
p3
aI0
aS'w'
p4
aI0
aS'o'
p5
aI0
aS'r'
p6
aI0
aS'k'
p7
aI3
aS'i'
p8
aI0
aS'n'
p9
aI3
aS'a'
p10
aI3
aS's'
p11
aI0
aS't'
p12
aI6
ag10
aI9
aS'g'
p13
aI2
ag3
aI0
ag8
aI9
aS'd'
p14
aI0
aS'u'
p15
aI0
ag11
aI12
ag6
aI0
aS'y'
p16
aI0
aS'.'
p17
aI3
aS'T'
p18
aI0
aS'h'
p19
aI2
ag6
aI15
ag8
aI19
ag3
aI0
ag10
aI3
aS'm'
p20
aI18
aS'c'
p21
aI24
ag3
aI24
ag8
aI0
ag13
aI24
ag2
aI6
ag3
aI9
ag2
aI2
ag14
aI3
aS'f'
p22
aI5
ag6
aI3
ag14
aI2
aS'v'
p23
aI2
aS'l'
p24
aI5
aS'p'
p25
aI25
ag11
aI3
ag12
aI24
ag10
aI9
ag3
aI0
ag21
aI28
ag9
aI3
aS'b'
p26
aI15
ag11
aI28
ag12
aI16
ag11
aI0
ag22
aI16
ag2
aI0
ag14
aI50
ag16
aI3
ag9
aI2
ag4
aI40
ag2
aI0
ag23
aI42
ag5
aI0
ag25
aI44
ag3
aI48
ag5
aI0
ag20
aI16
ag9
aI33
ag3
aI67
ag12
aI5
ag3
aI12
ag19
aI15
ag22
aI55
ag24
aI56
ag17
aI0
ag18
aI32
ag11
aI8
ag11
aI10
ag3
aI63
ag6
aI5
ag26
aI0
ag24
aI2
ag20
aI45
ag19
aI52
ag3
aI46
ag11
aI3
ag2
aI0
aS'x'
p27
aI53
ag12
aI37
ag3
aI54
ag5
aI35
ag16
aI2
ag10
aI6
ag11
aI0
aS','
p28
aI10
ag9
aI56
ag3
aI16
ag12
aI77
ag3
aI33
ag2
aI12
ag12
aI67
ag13
aI3
ag4
aI39
ag11
aI15
ag10
aI27
ag12
aI16
ag20
aI15
ag13
aI5
ag2
aI27
ag5
aI9
ag17
aI1
ag2
aI3
ag19
aI28
ag23
aI104
ag3
aI19
ag2
aI6
ag8
aI5
ag15
aI27
ag11
aI24
ag5
aI6
ag12
aI28
ag13
aI15
ag5
aI54
ag3
aI12
ag10
aI81
ag2
aI9
ag12
aI45
ag5
aI29
ag2
aI2
ag12
aI83
ag2
aI60
ag20
aI49
ag14
aI94
ag3
aI0
ag26
aI18
ag12
aI3
ag5
aI18
ag6
aI8
ag9
aI56
ag15
aI19
ag12
aI6
ag16
aI98
ag6
aI92
ag24
aI81
ag16
aI3
aS'q'
p29
aI18
ag8
aI12
ag2
aI3
ag16
aI117
ag9
aI68
ag17
aI3
aS'M'
p30
aI5
ag11
aI12
ag3
aI19
ag5
aI54
ag12
aI4
ag10
aI6
ag2
aI3
ag25
aI6
ag5
aI0
aS'j'
p31
aI2
ag21
aI12
ag11
aI38
ag10
aI16
ag24
aI22
ag3
aI0
aS'N'
p32
aI92
ag6
aI144
ag3
aI28
ag24
aI81
ag3
aI5
ag22
aI130
ag20
aI3
ag21
aI5
ag20
aI26
ag9
aI136
ag23
aI25
ag3
aI134
ag15
aI56
ag13
aI129
ag17
aI23
ag19
aI15
ag26
aI2
ag11
aI153
ag13
aI146
ag14
aI49
ag21
aI15
ag4
aI15
ag19
aI113
ag2
aI136
ag9
aI83
ag8
aI118
ag15
aI134
ag31
aI161
ag12
aI38
ag6
aI174
ag3
aI71
ag5
aI18
ag13
aI24
ag12
aI3
ag24
aI92
ag14
aI64
ag26
aI5
ag8
aI81
ag11
aI40
ag5
aI4
ag9
aI127
ag3
aI0
aS'\xe2'
p33
aI0
aS'\x80'
p34
aI0
aS'\x9c'
p35
aI75
ag19
aI183
ag2
aI10
ag6
aI51
ag5
aI66
ag2
aI173
ag5
aI66
ag20
aI5
ag9
aI102
ag10
aI21
ag11
aI102
ag2
aI11
ag5
aI81
ag23
aI15
ag12
aI34
ag11
aI15
ag25
aI159
ag26
aI125
ag20
aI19
ag28
aI50
ag15
aI153
ag5
aI137
ag3
aI154
ag24
aI135
ag8
aI218
ag11
aI195
ag2
aI0
ag29
aI18
ag2
aI126
ag24
aI21
ag3
aI56
ag5
aI9
ag33
aI209
aS'\x99'
p36
aI153
ag4
aI39
ag7
aI133
ag11
aI70
ag12
aI34
ag3
aI218
ag24
aI240
ag12
aI32
ag9
aI68
ag16
aI117
ag3
aI48
ag10
aI47
ag6
aI143
ag24
aI240
ag14
aI70
ag8
aI105
ag6
aI240
ag8
aI231
ag15
aI153
ag10
aI17
ag3
aI115
ag2
aI8
ag22
aI8
ag12
aI102
ag5
aI6
ag7
aI27
ag22
aI39
ag3
aI21
ag5
aI18
ag33
aI209
aS'\x9d'
p37
aI22
ag18
aI248
ag6
aI143
ag8
aI12
ag16
aI221
ag3
aI81
ag8
aI61
ag2
aI138
ag3
aI53
ag3
aI71
ag10
aI153
ag33
aI209
ag35
aI0
aS'S'
p38
aI2
ag9
aI16
ag5
aI35
aS'D'
p39
aI41
ag2
aI81
ag5
aI63
ag2
aI6
ag33
aI273
ag3
aI215
ag10
aI9
ag11
aI78
ag25
aI44
ag5
aI47
ag4
aI119
ag3
aI85
ag3
aI134
ag2
aI287
ag3
aI19
ag24
aI101
ag8
aI14
ag3
aI65
ag14
aI72
ag5
aI35
ag20
aI39
ag2
aI83
ag10
aI47
aS'3'
p40
aI148
ag2
aI28
ag6
aI19
ag17
aI181
ag2
aI115
ag3
aI292
ag5
aI63
ag24
aI104
ag6
aI226
ag15
aI153
ag8
aI126
ag5
aI200
ag2
aI28
ag14
aI44
ag19
aI16
ag25
aI158
ag5
aI19
ag8
aI12
ag8
aI235
ag28
aI95
ag14
aI45
ag16
aI63
ag8
aI254
ag24
aI168
ag12
aI251
ag13
aI27
ag25
aI81
ag10
aI240
ag5
aI135
ag3
aI28
ag11
aI148
ag5
aI18
ag3
aI4
ag5
aI18
ag24
aI96
ag2
aI87
ag25
aI194
ag3
aI208
ag34
aI0
aS'\x94'
p41
aI145
ag15
aI97
ag2
aI50
ag10
aI56
ag24
aI21
ag17
a.